target datalayout = "e-m:e-p270:32:32-p271:32:32-p272:64:64-i64:64-i128:128-f80:128-n8:16:32:64-S128"
target triple = "x86_64-pc-linux-gnu"

%struct.JNINativeInterface_ = type { ptr, ptr, ptr, ptr, ptr, ptr, ptr, ptr, ptr, ptr, ptr, ptr, ptr, ptr, ptr, ptr, ptr, ptr, ptr, ptr, ptr, ptr, ptr, ptr, ptr, ptr, ptr, ptr, ptr, ptr, ptr, ptr, ptr, ptr, ptr, ptr, ptr, ptr, ptr, ptr, ptr, ptr, ptr, ptr, ptr, ptr, ptr, ptr, ptr, ptr, ptr, ptr, ptr, ptr, ptr, ptr, ptr, ptr, ptr, ptr, ptr, ptr, ptr, ptr, ptr, ptr, ptr, ptr, ptr, ptr, ptr, ptr, ptr, ptr, ptr, ptr, ptr, ptr, ptr, ptr, ptr, ptr, ptr, ptr, ptr, ptr, ptr, ptr, ptr, ptr, ptr, ptr, ptr, ptr, ptr, ptr, ptr, ptr, ptr, ptr, ptr, ptr, ptr, ptr, ptr, ptr, ptr, ptr, ptr, ptr, ptr, ptr, ptr, ptr, ptr, ptr, ptr, ptr, ptr, ptr, ptr, ptr, ptr, ptr, ptr, ptr, ptr, ptr, ptr, ptr, ptr, ptr, ptr, ptr, ptr, ptr, ptr, ptr, ptr, ptr, ptr, ptr, ptr, ptr, ptr, ptr, ptr, ptr, ptr, ptr, ptr, ptr, ptr, ptr, ptr, ptr, ptr, ptr, ptr, ptr, ptr, ptr, ptr, ptr, ptr, ptr, ptr, ptr, ptr, ptr, ptr, ptr, ptr, ptr, ptr, ptr, ptr, ptr, ptr, ptr, ptr, ptr, ptr, ptr, ptr, ptr, ptr, ptr, ptr, ptr, ptr, ptr, ptr, ptr, ptr, ptr, ptr, ptr, ptr, ptr, ptr, ptr, ptr, ptr, ptr, ptr, ptr, ptr, ptr, ptr, ptr, ptr, ptr, ptr, ptr, ptr, ptr, ptr, ptr, ptr, ptr, ptr, ptr, ptr, ptr, ptr, ptr, ptr, ptr, ptr, ptr, ptr, ptr, ptr, ptr }

@.str.1 = private unnamed_addr constant [7 x i8] c"<init>\00", align 1
@.str.3 = private unnamed_addr constant [44 x i8] c"sun/security/pkcs11/wrapper/PKCS11Exception\00", align 1
@.str.4 = private unnamed_addr constant [23 x i8] c"(JLjava/lang/String;)V\00", align 1

; Function Attrs: nounwind uwtable
define hidden i64 @ckAssertReturnValueOK2(ptr noundef %0, i64 noundef %1, ptr noundef %2) #0 {
  %4 = alloca ptr, align 8
  %5 = alloca i64, align 8
  %6 = alloca ptr, align 8
  %7 = alloca ptr, align 8
  %8 = alloca ptr, align 8
  %9 = alloca ptr, align 8
  %10 = alloca i64, align 8
  %11 = alloca ptr, align 8
  store ptr %0, ptr %4, align 8
  store i64 %1, ptr %5, align 8
  store ptr %2, ptr %6, align 8
  store i64 0, ptr %10, align 8
  store ptr null, ptr %11, align 8
  %12 = load i64, ptr %5, align 8
  %13 = icmp ne i64 %12, 0
  br i1 %13, label %14, label %75

14:                                               ; preds = %3
  %15 = load i64, ptr %5, align 8
  store i64 %15, ptr %10, align 8
  %16 = load ptr, ptr %4, align 8
  %17 = load ptr, ptr %16, align 8
  %18 = getelementptr inbounds %struct.JNINativeInterface_, ptr %17, i32 0, i32 6
  %19 = load ptr, ptr %18, align 8
  %20 = load ptr, ptr %4, align 8
  %21 = call ptr %19(ptr noundef %20, ptr noundef @.str.3)
  store ptr %21, ptr %7, align 8
  %22 = load ptr, ptr %7, align 8
  %23 = icmp ne ptr %22, null
  br i1 %23, label %24, label %68

24:                                               ; preds = %14
  %25 = load ptr, ptr %4, align 8
  %26 = load ptr, ptr %25, align 8
  %27 = getelementptr inbounds %struct.JNINativeInterface_, ptr %26, i32 0, i32 33
  %28 = load ptr, ptr %27, align 8
  %29 = load ptr, ptr %4, align 8
  %30 = load ptr, ptr %7, align 8
  %31 = call ptr %28(ptr noundef %29, ptr noundef %30, ptr noundef @.str.1, ptr noundef @.str.4)
  store ptr %31, ptr %8, align 8
  %32 = load ptr, ptr %8, align 8
  %33 = icmp ne ptr %32, null
  br i1 %33, label %34, label %67

34:                                               ; preds = %24
  %35 = load ptr, ptr %6, align 8
  %36 = icmp ne ptr %35, null
  br i1 %36, label %37, label %45

37:                                               ; preds = %34
  %38 = load ptr, ptr %4, align 8
  %39 = load ptr, ptr %38, align 8
  %40 = getelementptr inbounds %struct.JNINativeInterface_, ptr %39, i32 0, i32 167
  %41 = load ptr, ptr %40, align 8
  %42 = load ptr, ptr %4, align 8
  %43 = load ptr, ptr %6, align 8
  %44 = call ptr %41(ptr noundef %42, ptr noundef %43)
  store ptr %44, ptr %11, align 8
  br label %45

45:                                               ; preds = %37, %34
  %46 = load ptr, ptr %4, align 8
  %47 = load ptr, ptr %46, align 8
  %48 = getelementptr inbounds %struct.JNINativeInterface_, ptr %47, i32 0, i32 28
  %49 = load ptr, ptr %48, align 8
  %50 = load ptr, ptr %4, align 8
  %51 = load ptr, ptr %7, align 8
  %52 = load ptr, ptr %8, align 8
  %53 = load i64, ptr %10, align 8
  %54 = load ptr, ptr %11, align 8
  %55 = call ptr (ptr, ptr, ptr, ...) %49(ptr noundef %50, ptr noundef %51, ptr noundef %52, i64 noundef %53, ptr noundef %54)
  store ptr %55, ptr %9, align 8
  %56 = load ptr, ptr %9, align 8
  %57 = icmp ne ptr %56, null
  br i1 %57, label %58, label %66

58:                                               ; preds = %45
  %59 = load ptr, ptr %4, align 8
  %60 = load ptr, ptr %59, align 8
  %61 = getelementptr inbounds %struct.JNINativeInterface_, ptr %60, i32 0, i32 13
  %62 = load ptr, ptr %61, align 8
  %63 = load ptr, ptr %4, align 8
  %64 = load ptr, ptr %9, align 8
  %65 = call i32 %62(ptr noundef %63, ptr noundef %64)
  br label %66

66:                                               ; preds = %58, %45
  br label %67

67:                                               ; preds = %66, %24
  br label %68

68:                                               ; preds = %67, %14
  %69 = load ptr, ptr %4, align 8
  %70 = load ptr, ptr %69, align 8
  %71 = getelementptr inbounds %struct.JNINativeInterface_, ptr %70, i32 0, i32 23
  %72 = load ptr, ptr %71, align 8
  %73 = load ptr, ptr %4, align 8
  %74 = load ptr, ptr %7, align 8
  call void %72(ptr noundef %73, ptr noundef %74)
  br label %75

75:                                               ; preds = %68, %3
  %76 = load i64, ptr %10, align 8
  ret i64 %76
}