; Function Attrs: nounwind uwtable
define hidden noundef i64 @ckAssertReturnValueOK2(ptr noundef %0, i64 noundef returned %1, ptr noundef %2) local_unnamed_addr #0 {
  %.not = icmp eq i64 %1, 0
  br i1 %.not, label %34, label %4

4:                                                ; preds = %3
  %5 = load ptr, ptr %0, align 8
  %6 = getelementptr inbounds i8, ptr %5, i64 48
  %7 = load ptr, ptr %6, align 8
  %8 = tail call ptr %7(ptr noundef nonnull %0, ptr noundef nonnull @.str.3) #15
  %.not32 = icmp eq ptr %8, null
  br i1 %.not32, label %30, label %9

9:                                                ; preds = %4
  %10 = load ptr, ptr %0, align 8
  %11 = getelementptr inbounds i8, ptr %10, i64 264
  %12 = load ptr, ptr %11, align 8
  %13 = tail call ptr %12(ptr noundef nonnull %0, ptr noundef nonnull %8, ptr noundef nonnull @.str.1, ptr noundef nonnull @.str.4) #15
  %.not33 = icmp eq ptr %13, null
  br i1 %.not33, label %30, label %14

14:                                               ; preds = %9
  %.not34 = icmp eq ptr %2, null
  br i1 %.not34, label %20, label %15

15:                                               ; preds = %14
  %16 = load ptr, ptr %0, align 8
  %17 = getelementptr inbounds i8, ptr %16, i64 1336
  %18 = load ptr, ptr %17, align 8
  %19 = tail call ptr %18(ptr noundef nonnull %0, ptr noundef nonnull %2) #15
  br label %20

20:                                               ; preds = %15, %14
  %.0 = phi ptr [ %19, %15 ], [ null, %14 ]
  %21 = load ptr, ptr %0, align 8
  %22 = getelementptr inbounds i8, ptr %21, i64 224
  %23 = load ptr, ptr %22, align 8
  %24 = tail call ptr (ptr, ptr, ptr, ...) %23(ptr noundef nonnull %0, ptr noundef nonnull %8, ptr noundef nonnull %13, i64 noundef %1, ptr noundef %.0) #15
  %.not35 = icmp eq ptr %24, null
  br i1 %.not35, label %30, label %25

25:                                               ; preds = %20
  %26 = load ptr, ptr %0, align 8
  %27 = getelementptr inbounds i8, ptr %26, i64 104
  %28 = load ptr, ptr %27, align 8
  %29 = tail call i32 %28(ptr noundef nonnull %0, ptr noundef nonnull %24) #15
  br label %30

30:                                               ; preds = %9, %25, %20, %4
  %31 = load ptr, ptr %0, align 8
  %32 = getelementptr inbounds i8, ptr %31, i64 184
  %33 = load ptr, ptr %32, align 8
  tail call void %33(ptr noundef nonnull %0, ptr noundef %8) #15
  br label %34

34:                                               ; preds = %30, %3
  ret i64 %1
}